target datalayout = "e-m:e-p270:32:32-p271:32:32-p272:64:64-i64:64-i128:128-f80:128-n8:16:32:64-S128"
target triple = "x86_64-unknown-linux-gnu"

%"class.Assimp::Compression" = type { ptr }
%"struct.Assimp::Compression::impl" = type <{ i8, [7 x i8], %struct.z_stream_s, i32, [4 x i8] }>
%struct.z_stream_s = type { ptr, i32, i64, ptr, i32, i64, ptr, ptr, ptr, ptr, ptr, i32, i64, i64 }

@.str = private unnamed_addr constant [7 x i8] c"1.2.13\00", align 1

; Function Attrs: mustprogress uwtable
define hidden noundef zeroext i1 @_ZN6Assimp11Compression4openENS0_6FormatENS0_9FlushModeEi(ptr noundef nonnull align 8 dereferenceable(8) %this, i32 noundef %format, i32 noundef %flush, i32 noundef %windowBits) #2 align 2 {
entry:
  %retval = alloca i1, align 1
  %this.addr = alloca ptr, align 8
  %format.addr = alloca i32, align 4
  %flush.addr = alloca i32, align 4
  %windowBits.addr = alloca i32, align 4
  store ptr %this, ptr %this.addr, align 8
  store i32 %format, ptr %format.addr, align 4
  store i32 %flush, ptr %flush.addr, align 4
  store i32 %windowBits, ptr %windowBits.addr, align 4
  %this1 = load ptr, ptr %this.addr, align 8
  %mImpl = getelementptr inbounds %"class.Assimp::Compression", ptr %this1, i32 0, i32 0
  %0 = load ptr, ptr %mImpl, align 8
  %mOpen = getelementptr inbounds %"struct.Assimp::Compression::impl", ptr %0, i32 0, i32 0
  %1 = load i8, ptr %mOpen, align 8
  %tobool = trunc i8 %1 to i1
  br i1 %tobool, label %if.then, label %if.end

if.then:                                          ; preds = %entry
  store i1 false, ptr %retval, align 1
  br label %return

if.end:                                           ; preds = %entry
  %mImpl2 = getelementptr inbounds %"class.Assimp::Compression", ptr %this1, i32 0, i32 0
  %2 = load ptr, ptr %mImpl2, align 8
  %mZSstream = getelementptr inbounds %"struct.Assimp::Compression::impl", ptr %2, i32 0, i32 2
  %opaque = getelementptr inbounds %struct.z_stream_s, ptr %mZSstream, i32 0, i32 10
  store ptr null, ptr %opaque, align 8
  %mImpl3 = getelementptr inbounds %"class.Assimp::Compression", ptr %this1, i32 0, i32 0
  %3 = load ptr, ptr %mImpl3, align 8
  %mZSstream4 = getelementptr inbounds %"struct.Assimp::Compression::impl", ptr %3, i32 0, i32 2
  %zalloc = getelementptr inbounds %struct.z_stream_s, ptr %mZSstream4, i32 0, i32 8
  store ptr null, ptr %zalloc, align 8
  %mImpl5 = getelementptr inbounds %"class.Assimp::Compression", ptr %this1, i32 0, i32 0
  %4 = load ptr, ptr %mImpl5, align 8
  %mZSstream6 = getelementptr inbounds %"struct.Assimp::Compression::impl", ptr %4, i32 0, i32 2
  %zfree = getelementptr inbounds %struct.z_stream_s, ptr %mZSstream6, i32 0, i32 9
  store ptr null, ptr %zfree, align 8
  %5 = load i32, ptr %flush.addr, align 4
  %mImpl7 = getelementptr inbounds %"class.Assimp::Compression", ptr %this1, i32 0, i32 0
  %6 = load ptr, ptr %mImpl7, align 8
  %mFlushMode = getelementptr inbounds %"struct.Assimp::Compression::impl", ptr %6, i32 0, i32 3
  store i32 %5, ptr %mFlushMode, align 8
  %7 = load i32, ptr %format.addr, align 4
  %cmp = icmp eq i32 %7, 0
  br i1 %cmp, label %if.then8, label %if.else

if.then8:                                         ; preds = %if.end
  %mImpl9 = getelementptr inbounds %"class.Assimp::Compression", ptr %this1, i32 0, i32 0
  %8 = load ptr, ptr %mImpl9, align 8
  %mZSstream10 = getelementptr inbounds %"struct.Assimp::Compression::impl", ptr %8, i32 0, i32 2
  %data_type = getelementptr inbounds %struct.z_stream_s, ptr %mZSstream10, i32 0, i32 11
  store i32 0, ptr %data_type, align 8
  br label %if.end14

if.else:                                          ; preds = %if.end
  %mImpl11 = getelementptr inbounds %"class.Assimp::Compression", ptr %this1, i32 0, i32 0
  %9 = load ptr, ptr %mImpl11, align 8
  %mZSstream12 = getelementptr inbounds %"struct.Assimp::Compression::impl", ptr %9, i32 0, i32 2
  %data_type13 = getelementptr inbounds %struct.z_stream_s, ptr %mZSstream12, i32 0, i32 11
  store i32 1, ptr %data_type13, align 8
  br label %if.end14

if.end14:                                         ; preds = %if.else, %if.then8
  %10 = load i32, ptr %windowBits.addr, align 4
  %cmp15 = icmp eq i32 %10, 0
  br i1 %cmp15, label %if.then16, label %if.else19

if.then16:                                        ; preds = %if.end14
  %mImpl17 = getelementptr inbounds %"class.Assimp::Compression", ptr %this1, i32 0, i32 0
  %11 = load ptr, ptr %mImpl17, align 8
  %mZSstream18 = getelementptr inbounds %"struct.Assimp::Compression::impl", ptr %11, i32 0, i32 2
  %call = call i32 @inflateInit_(ptr noundef %mZSstream18, ptr noundef @.str, i32 noundef 112)
  br label %if.end23

if.else19:                                        ; preds = %if.end14
  %mImpl20 = getelementptr inbounds %"class.Assimp::Compression", ptr %this1, i32 0, i32 0
  %12 = load ptr, ptr %mImpl20, align 8
  %mZSstream21 = getelementptr inbounds %"struct.Assimp::Compression::impl", ptr %12, i32 0, i32 2
  %13 = load i32, ptr %windowBits.addr, align 4
  %call22 = call i32 @inflateInit2_(ptr noundef %mZSstream21, i32 noundef %13, ptr noundef @.str, i32 noundef 112)
  br label %if.end23

if.end23:                                         ; preds = %if.else19, %if.then16
  %mImpl24 = getelementptr inbounds %"class.Assimp::Compression", ptr %this1, i32 0, i32 0
  %14 = load ptr, ptr %mImpl24, align 8
  %mOpen25 = getelementptr inbounds %"struct.Assimp::Compression::impl", ptr %14, i32 0, i32 0
  store i8 1, ptr %mOpen25, align 8
  %mImpl26 = getelementptr inbounds %"class.Assimp::Compression", ptr %this1, i32 0, i32 0
  %15 = load ptr, ptr %mImpl26, align 8
  %mOpen27 = getelementptr inbounds %"struct.Assimp::Compression::impl", ptr %15, i32 0, i32 0
  %16 = load i8, ptr %mOpen27, align 8
  %tobool28 = trunc i8 %16 to i1
  store i1 %tobool28, ptr %retval, align 1
  br label %return

return:                                           ; preds = %if.end23, %if.then
  %17 = load i1, ptr %retval, align 1
  ret i1 %17
}