; Function Attrs: mustprogress uwtable
define hidden noundef zeroext i1 @_ZN6Assimp11Compression4openENS0_6FormatENS0_9FlushModeEi(ptr nocapture noundef nonnull readonly align 8 dereferenceable(8) %this, i32 noundef %format, i32 noundef %flush, i32 noundef %windowBits) local_unnamed_addr #0 align 2 {
entry:
  %0 = load ptr, ptr %this, align 8
  %1 = load i8, ptr %0, align 8
  %2 = and i8 %1, 1
  %tobool.not = icmp eq i8 %2, 0
  br i1 %tobool.not, label %if.end, label %return

if.end:                                           ; preds = %entry
  %opaque = getelementptr inbounds i8, ptr %0, i64 88
  store ptr null, ptr %opaque, align 8
  %3 = load ptr, ptr %this, align 8
  %zalloc = getelementptr inbounds i8, ptr %3, i64 72
  store ptr null, ptr %zalloc, align 8
  %4 = load ptr, ptr %this, align 8
  %zfree = getelementptr inbounds i8, ptr %4, i64 80
  store ptr null, ptr %zfree, align 8
  %5 = load ptr, ptr %this, align 8
  %mFlushMode = getelementptr inbounds i8, ptr %5, i64 120
  store i32 %flush, ptr %mFlushMode, align 8
  %cmp = icmp ne i32 %format, 0
  %6 = load ptr, ptr %this, align 8
  %data_type = getelementptr inbounds i8, ptr %6, i64 96
  %. = zext i1 %cmp to i32
  store i32 %., ptr %data_type, align 8
  %cmp15 = icmp eq i32 %windowBits, 0
  %7 = load ptr, ptr %this, align 8
  %mZSstream18 = getelementptr inbounds i8, ptr %7, i64 8
  br i1 %cmp15, label %if.then16, label %if.else19

if.then16:                                        ; preds = %if.end
  %call = tail call i32 @inflateInit_(ptr noundef nonnull %mZSstream18, ptr noundef nonnull @.str, i32 noundef 112)
  br label %if.end23

if.else19:                                        ; preds = %if.end
  %call22 = tail call i32 @inflateInit2_(ptr noundef nonnull %mZSstream18, i32 noundef %windowBits, ptr noundef nonnull @.str, i32 noundef 112)
  br label %if.end23

if.end23:                                         ; preds = %if.else19, %if.then16
  %8 = load ptr, ptr %this, align 8
  store i8 1, ptr %8, align 8
  %9 = load ptr, ptr %this, align 8
  %10 = load i8, ptr %9, align 8
  %11 = and i8 %10, 1
  %tobool28 = icmp ne i8 %11, 0
  br label %return

return:                                           ; preds = %entry, %if.end23
  %retval.0 = phi i1 [ %tobool28, %if.end23 ], [ false, %entry ]
  ret i1 %retval.0
}